Certificate:
    Data:
        Version: 3 (0x2)
        Serial Number: 138059776000 (0x2025010000)
        Signature Algorithm: sha256WithRSAEncryption
        Issuer: C=XD, O=Apeiria Network, OU=Apeiria Network Certificate Authority, CN=Apeiria Network Root Authority CA
        Validity
            Not Before: Jan  1 00:00:00 2025 GMT
            Not After : Dec 31 23:59:59 2035 GMT
        Subject: C=XD, O=Apeiria Network, OU=Apeiria Network Certificate Authority, CN=Apeiria Network Root Authority CA
        Subject Public Key Info:
            Public Key Algorithm: rsaEncryption
                Public-Key: (2048 bit)
                Modulus:
                    00:c2:69:df:cd:96:b3:0e:ce:dd:28:f0:49:b9:77:
                    3f:46:d5:63:bc:e4:0c:0a:7e:5e:73:cd:3b:7a:1f:
                    4c:f9:e8:1f:26:48:4e:23:6f:ed:d7:bc:b9:00:9e:
                    eb:18:ce:da:20:5d:4e:82:89:9c:ee:8a:5c:c9:14:
                    fe:b0:f6:19:83:80:a1:2d:76:b8:ac:1d:76:50:59:
                    56:8f:e7:c3:66:53:1b:27:21:1c:2f:a6:1f:59:64:
                    ac:02:d2:54:b3:29:62:6e:6c:24:b9:27:84:86:50:
                    1e:39:07:de:1e:63:e6:9b:35:8d:c2:35:79:92:cf:
                    1d:93:50:58:d8:3e:f7:25:14:f5:4f:6b:34:03:91:
                    e5:84:24:35:1b:c8:ea:db:59:bc:b2:c9:3f:80:ef:
                    84:6c:cb:2d:63:b4:0d:a5:76:5d:1d:47:db:d9:f0:
                    f8:65:91:85:42:00:4f:cd:19:e8:1a:92:8e:6b:c8:
                    6d:7f:4c:e9:c5:bc:84:d9:22:f5:a2:d3:35:76:d8:
                    73:98:45:2d:c7:ed:05:dc:41:28:5a:0e:4e:9a:dc:
                    07:00:b0:11:ef:99:4c:c6:2e:09:ce:70:8a:38:4a:
                    c7:12:03:f9:ce:0e:e4:e3:7d:b5:21:a8:9f:6f:a9:
                    9f:ec:73:46:50:5c:d9:7b:22:f8:af:4d:f8:00:85:
                    ac:cb
                Exponent: 65537 (0x10001)
        X509v3 extensions:
            X509v3 Subject Key Identifier: 
                9F:43:28:A8:1A:CC:6B:02:79:77:40:78:C7:74:F7:A3:93:42:01:A3
            X509v3 Authority Key Identifier: 
                9F:43:28:A8:1A:CC:6B:02:79:77:40:78:C7:74:F7:A3:93:42:01:A3
            X509v3 Basic Constraints: critical
                CA:TRUE
            X509v3 Key Usage: critical
                Certificate Sign, CRL Sign
    Signature Algorithm: sha256WithRSAEncryption
    Signature Value:
        9e:2f:13:c9:53:14:ba:04:c3:fb:06:77:1f:06:31:5d:8d:4f:
        50:58:cc:a9:33:f4:3a:fa:5d:9d:c2:8d:d1:2a:b2:7d:06:ed:
        60:0b:8f:fd:ce:b8:9d:c7:82:37:46:81:0a:86:89:65:9b:b3:
        71:81:90:a6:fc:08:de:39:4f:2c:f7:e3:71:92:68:53:55:36:
        82:42:ac:64:8d:4c:8c:0b:bc:a6:63:71:d3:4c:f2:17:12:21:
        21:b8:98:1d:d7:82:76:04:52:8e:40:92:89:23:64:af:f1:41:
        ee:06:95:88:c6:7f:93:eb:bc:b8:d6:2a:8a:c5:f0:a2:d3:67:
        67:e0:2f:5c:e0:c8:2f:0b:83:a3:a5:c7:a5:21:33:16:c3:a2:
        34:a6:b2:8c:76:81:38:3f:02:c3:e0:cf:b3:db:73:96:9d:0d:
        e5:3e:0d:83:36:db:a1:a5:d9:18:c6:a1:8f:39:9b:f6:9b:30:
        62:43:3c:14:c9:98:11:01:67:9c:ce:8e:d6:00:04:11:7c:ba:
        3c:03:44:37:e8:a3:32:c7:0c:c7:b0:ff:88:54:56:45:71:9e:
        d6:73:f3:9a:d1:a8:97:ba:45:2e:59:3d:b2:f4:55:8a:a6:6a:
        d1:ed:f6:77:62:0b:12:f6:b3:93:91:37:5f:4f:5d:4a:d0:b1:
        83:67:2c:af
-----BEGIN CERTIFICATE-----
MIID6jCCAtKgAwIBAgIFICUBAAAwDQYJKoZIhvcNAQELBQAwgYMxCzAJBgNVBAYT
AlhEMRgwFgYDVQQKDA9BcGVpcmlhIE5ldHdvcmsxLjAsBgNVBAsMJUFwZWlyaWEg
TmV0d29yayBDZXJ0aWZpY2F0ZSBBdXRob3JpdHkxKjAoBgNVBAMMIUFwZWlyaWEg
TmV0d29yayBSb290IEF1dGhvcml0eSBDQTAeFw0yNTAxMDEwMDAwMDBaFw0zNTEy
MzEyMzU5NTlaMIGDMQswCQYDVQQGEwJYRDEYMBYGA1UECgwPQXBlaXJpYSBOZXR3
b3JrMS4wLAYDVQQLDCVBcGVpcmlhIE5ldHdvcmsgQ2VydGlmaWNhdGUgQXV0aG9y
aXR5MSowKAYDVQQDDCFBcGVpcmlhIE5ldHdvcmsgUm9vdCBBdXRob3JpdHkgQ0Ew
ggEiMA0GCSqGSIb3DQEBAQUAA4IBDwAwggEKAoIBAQDCad/NlrMOzt0o8Em5dz9G
1WO85AwKfl5zzTt6H0z56B8mSE4jb+3XvLkAnusYztogXU6CiZzuilzJFP6w9hmD
gKEtdrisHXZQWVaP58NmUxsnIRwvph9ZZKwC0lSzKWJubCS5J4SGUB45B94eY+ab
NY3CNXmSzx2TUFjYPvclFPVPazQDkeWEJDUbyOrbWbyyyT+A74Rsyy1jtA2ldl0d
R9vZ8PhlkYVCAE/NGegako5ryG1/TOnFvITZIvWi0zV22HOYRS3H7QXcQShaDk6a
3AcAsBHvmUzGLgnOcIo4SscSA/nODuTjfbUhqJ9vqZ/sc0ZQXNl7IvivTfgAhazL
AgMBAAGjYzBhMB0GA1UdDgQWBBSfQyioGsxrAnl3QHjHdPejk0IBozAfBgNVHSME
GDAWgBSfQyioGsxrAnl3QHjHdPejk0IBozAPBgNVHRMBAf8EBTADAQH/MA4GA1Ud
DwEB/wQEAwIBBjANBgkqhkiG9w0BAQsFAAOCAQEAni8TyVMUugTD+wZ3HwYxXY1P
UFjMqTP0OvpdncKN0SqyfQbtYAuP/c64nceCN0aBCoaJZZuzcYGQpvwI3jlPLPfj
cZJoU1U2gkKsZI1MjAu8pmNx00zyFxIhIbiYHdeCdgRSjkCSiSNkr/FB7gaViMZ/
k+u8uNYqisXwotNnZ+AvXODILwuDo6XHpSEzFsOiNKayjHaBOD8Cw+DPs9tzlp0N
5T4NgzbboaXZGMahjzmb9pswYkM8FMmYEQFnnM6O1gAEEXy6PANEN+ijMscMx7D/
iFRWRXGe1nPzmtGol7pFLlk9svRViqZq0e32d2ILEvazk5E3X09dStCxg2csrw==
-----END CERTIFICATE-----
